target datalayout = "e-m:e-p270:32:32-p271:32:32-p272:64:64-i64:64-i128:128-f80:128-n8:16:32:64-S128"
target triple = "x86_64-pc-linux-gnu"

%struct.VLC = type { i32, ptr, i32, i32 }
%struct.IVIHuffDesc = type { i32, [16 x i8] }
%struct.IVIHuffTab = type { i32, ptr, %struct.IVIHuffDesc, %struct.VLC }
%struct.IVIBandDesc = type { i32, i32, i32, i32, i32, ptr, i32, ptr, ptr, ptr, [4 x ptr], i64, i32, i32, i32, i32, i32, i32, i32, i32, i32, ptr, i32, %struct.IVIHuffTab, i32, [122 x i8], i32, ptr, i32, ptr, ptr, i32, ptr, i32, i32, i32, i32, ptr, ptr, ptr, ptr }

@.str.2 = private unnamed_addr constant [30 x i8] c"Assertion %s failed at %s:%d\0A\00", align 1
@.str.4 = private unnamed_addr constant [17 x i8] c"libavcodec/ivi.c\00", align 1
@.str.28 = private unnamed_addr constant [44 x i8] c"offs >= 0 && ref_offs >= 0 && band->ref_buf\00", align 1
@.str.29 = private unnamed_addr constant [28 x i8] c"buf_size - min_size >= offs\00", align 1
@.str.30 = private unnamed_addr constant [43 x i8] c"buf_size - min_size - ref_size >= ref_offs\00", align 1

; Function Attrs: nounwind uwtable
define internal i32 @ivi_mc(ptr noundef %0, ptr noundef %1, ptr noundef %2, i32 noundef %3, i32 noundef %4, i32 noundef %5, i32 noundef %6, i32 noundef %7, i32 noundef %8, i32 noundef %9) #2 {
  %11 = alloca i32, align 4
  %12 = alloca ptr, align 8
  %13 = alloca ptr, align 8
  %14 = alloca ptr, align 8
  %15 = alloca i32, align 4
  %16 = alloca i32, align 4
  %17 = alloca i32, align 4
  %18 = alloca i32, align 4
  %19 = alloca i32, align 4
  %20 = alloca i32, align 4
  %21 = alloca i32, align 4
  %22 = alloca i32, align 4
  %23 = alloca i32, align 4
  %24 = alloca i32, align 4
  %25 = alloca i32, align 4
  %26 = alloca i32, align 4
  %27 = alloca i32, align 4
  %28 = alloca i32, align 4
  store ptr %0, ptr %12, align 8, !tbaa !76
  store ptr %1, ptr %13, align 8, !tbaa !197
  store ptr %2, ptr %14, align 8, !tbaa !197
  store i32 %3, ptr %15, align 4, !tbaa !4
  store i32 %4, ptr %16, align 4, !tbaa !4
  store i32 %5, ptr %17, align 4, !tbaa !4
  store i32 %6, ptr %18, align 4, !tbaa !4
  store i32 %7, ptr %19, align 4, !tbaa !4
  store i32 %8, ptr %20, align 4, !tbaa !4
  store i32 %9, ptr %21, align 4, !tbaa !4
  call void @llvm.lifetime.start.p0(i64 4, ptr %22) #12
  %29 = load i32, ptr %15, align 4, !tbaa !4
  %30 = sext i32 %29 to i64
  %31 = load i32, ptr %17, align 4, !tbaa !4
  %32 = sext i32 %31 to i64
  %33 = load ptr, ptr %12, align 8, !tbaa !76
  %34 = getelementptr inbounds nuw %struct.IVIBandDesc, ptr %33, i32 0, i32 11
  %35 = load i64, ptr %34, align 8, !tbaa !84
  %36 = mul nsw i64 %32, %35
  %37 = add nsw i64 %30, %36
  %38 = load i32, ptr %16, align 4, !tbaa !4
  %39 = sext i32 %38 to i64
  %40 = add nsw i64 %37, %39
  %41 = trunc i64 %40 to i32
  store i32 %41, ptr %22, align 4, !tbaa !4
  call void @llvm.lifetime.start.p0(i64 4, ptr %23) #12
  %42 = load ptr, ptr %12, align 8, !tbaa !76
  %43 = getelementptr inbounds nuw %struct.IVIBandDesc, ptr %42, i32 0, i32 11
  %44 = load i64, ptr %43, align 8, !tbaa !84
  %45 = load ptr, ptr %12, align 8, !tbaa !76
  %46 = getelementptr inbounds nuw %struct.IVIBandDesc, ptr %45, i32 0, i32 4
  %47 = load i32, ptr %46, align 8, !tbaa !85
  %48 = sext i32 %47 to i64
  %49 = mul nsw i64 %44, %48
  %50 = trunc i64 %49 to i32
  store i32 %50, ptr %23, align 4, !tbaa !4
  call void @llvm.lifetime.start.p0(i64 4, ptr %24) #12
  %51 = load ptr, ptr %12, align 8, !tbaa !76
  %52 = getelementptr inbounds nuw %struct.IVIBandDesc, ptr %51, i32 0, i32 11
  %53 = load i64, ptr %52, align 8, !tbaa !84
  %54 = load ptr, ptr %12, align 8, !tbaa !76
  %55 = getelementptr inbounds nuw %struct.IVIBandDesc, ptr %54, i32 0, i32 14
  %56 = load i32, ptr %55, align 8, !tbaa !196
  %57 = sub nsw i32 %56, 1
  %58 = sext i32 %57 to i64
  %59 = mul nsw i64 %53, %58
  %60 = load ptr, ptr %12, align 8, !tbaa !76
  %61 = getelementptr inbounds nuw %struct.IVIBandDesc, ptr %60, i32 0, i32 14
  %62 = load i32, ptr %61, align 8, !tbaa !196
  %63 = sext i32 %62 to i64
  %64 = add nsw i64 %59, %63
  %65 = trunc i64 %64 to i32
  store i32 %65, ptr %24, align 4, !tbaa !4
  call void @llvm.lifetime.start.p0(i64 4, ptr %25) #12
  %66 = load i32, ptr %20, align 4, !tbaa !4
  %67 = icmp sgt i32 %66, 1
  %68 = zext i1 %67 to i32
  %69 = sext i32 %68 to i64
  %70 = load ptr, ptr %12, align 8, !tbaa !76
  %71 = getelementptr inbounds nuw %struct.IVIBandDesc, ptr %70, i32 0, i32 11
  %72 = load i64, ptr %71, align 8, !tbaa !84
  %73 = mul nsw i64 %69, %72
  %74 = load i32, ptr %20, align 4, !tbaa !4
  %75 = and i32 %74, 1
  %76 = sext i32 %75 to i64
  %77 = add nsw i64 %73, %76
  %78 = trunc i64 %77 to i32
  store i32 %78, ptr %25, align 4, !tbaa !4
  %79 = load i32, ptr %20, align 4, !tbaa !4
  %80 = icmp ne i32 %79, -1
  br i1 %80, label %81, label %119

81:                                               ; preds = %10
  br label %82

82:                                               ; preds = %81
  %83 = load i32, ptr %15, align 4, !tbaa !4
  %84 = icmp sge i32 %83, 0
  br i1 %84, label %85, label %93

85:                                               ; preds = %82
  %86 = load i32, ptr %22, align 4, !tbaa !4
  %87 = icmp sge i32 %86, 0
  br i1 %87, label %88, label %93

88:                                               ; preds = %85
  %89 = load ptr, ptr %12, align 8, !tbaa !76
  %90 = getelementptr inbounds nuw %struct.IVIBandDesc, ptr %89, i32 0, i32 8
  %91 = load ptr, ptr %90, align 8, !tbaa !154
  %92 = icmp ne ptr %91, null
  br i1 %92, label %94, label %93

93:                                               ; preds = %88, %85, %82
  call void (ptr, i32, ptr, ...) @av_log(ptr noundef null, i32 noundef 0, ptr noundef @.str.2, ptr noundef @.str.28, ptr noundef @.str.4, i32 noundef 92)
  call void @abort() #16
  unreachable

94:                                               ; preds = %88
  br label %95

95:                                               ; preds = %94
  br label %96

96:                                               ; preds = %95
  br label %97

97:                                               ; preds = %96
  %98 = load i32, ptr %23, align 4, !tbaa !4
  %99 = load i32, ptr %24, align 4, !tbaa !4
  %100 = sub nsw i32 %98, %99
  %101 = load i32, ptr %15, align 4, !tbaa !4
  %102 = icmp sge i32 %100, %101
  br i1 %102, label %104, label %103

103:                                              ; preds = %97
  call void (ptr, i32, ptr, ...) @av_log(ptr noundef null, i32 noundef 0, ptr noundef @.str.2, ptr noundef @.str.29, ptr noundef @.str.4, i32 noundef 93)
  call void @abort() #16
  unreachable

104:                                              ; preds = %97
  br label %105

105:                                              ; preds = %104
  br label %106

106:                                              ; preds = %105
  br label %107

107:                                              ; preds = %106
  %108 = load i32, ptr %23, align 4, !tbaa !4
  %109 = load i32, ptr %24, align 4, !tbaa !4
  %110 = sub nsw i32 %108, %109
  %111 = load i32, ptr %25, align 4, !tbaa !4
  %112 = sub nsw i32 %110, %111
  %113 = load i32, ptr %22, align 4, !tbaa !4
  %114 = icmp sge i32 %112, %113
  br i1 %114, label %116, label %115

115:                                              ; preds = %107
  call void (ptr, i32, ptr, ...) @av_log(ptr noundef null, i32 noundef 0, ptr noundef @.str.2, ptr noundef @.str.30, ptr noundef @.str.4, i32 noundef 94)
  call void @abort() #16
  unreachable

116:                                              ; preds = %107
  br label %117

117:                                              ; preds = %116
  br label %118

118:                                              ; preds = %117
  br label %119

119:                                              ; preds = %118, %10
  %120 = load i32, ptr %21, align 4, !tbaa !4
  %121 = icmp eq i32 %120, -1
  br i1 %121, label %122, label %140

122:                                              ; preds = %119
  %123 = load ptr, ptr %13, align 8, !tbaa !197
  %124 = load ptr, ptr %12, align 8, !tbaa !76
  %125 = getelementptr inbounds nuw %struct.IVIBandDesc, ptr %124, i32 0, i32 7
  %126 = load ptr, ptr %125, align 8, !tbaa !144
  %127 = load i32, ptr %15, align 4, !tbaa !4
  %128 = sext i32 %127 to i64
  %129 = getelementptr inbounds i16, ptr %126, i64 %128
  %130 = load ptr, ptr %12, align 8, !tbaa !76
  %131 = getelementptr inbounds nuw %struct.IVIBandDesc, ptr %130, i32 0, i32 8
  %132 = load ptr, ptr %131, align 8, !tbaa !154
  %133 = load i32, ptr %22, align 4, !tbaa !4
  %134 = sext i32 %133 to i64
  %135 = getelementptr inbounds i16, ptr %132, i64 %134
  %136 = load ptr, ptr %12, align 8, !tbaa !76
  %137 = getelementptr inbounds nuw %struct.IVIBandDesc, ptr %136, i32 0, i32 11
  %138 = load i64, ptr %137, align 8, !tbaa !84
  %139 = load i32, ptr %20, align 4, !tbaa !4
  call void %123(ptr noundef %129, ptr noundef %135, i64 noundef %138, i32 noundef %139)
  br label %237

140:                                              ; preds = %119
  call void @llvm.lifetime.start.p0(i64 4, ptr %26) #12
  %141 = load i32, ptr %15, align 4, !tbaa !4
  %142 = sext i32 %141 to i64
  %143 = load i32, ptr %19, align 4, !tbaa !4
  %144 = sext i32 %143 to i64
  %145 = load ptr, ptr %12, align 8, !tbaa !76
  %146 = getelementptr inbounds nuw %struct.IVIBandDesc, ptr %145, i32 0, i32 11
  %147 = load i64, ptr %146, align 8, !tbaa !84
  %148 = mul nsw i64 %144, %147
  %149 = add nsw i64 %142, %148
  %150 = load i32, ptr %18, align 4, !tbaa !4
  %151 = sext i32 %150 to i64
  %152 = add nsw i64 %149, %151
  %153 = trunc i64 %152 to i32
  store i32 %153, ptr %26, align 4, !tbaa !4
  call void @llvm.lifetime.start.p0(i64 4, ptr %27) #12
  %154 = load i32, ptr %21, align 4, !tbaa !4
  %155 = icmp sgt i32 %154, 1
  %156 = zext i1 %155 to i32
  %157 = sext i32 %156 to i64
  %158 = load ptr, ptr %12, align 8, !tbaa !76
  %159 = getelementptr inbounds nuw %struct.IVIBandDesc, ptr %158, i32 0, i32 11
  %160 = load i64, ptr %159, align 8, !tbaa !84
  %161 = mul nsw i64 %157, %160
  %162 = load i32, ptr %21, align 4, !tbaa !4
  %163 = and i32 %162, 1
  %164 = sext i32 %163 to i64
  %165 = add nsw i64 %161, %164
  %166 = trunc i64 %165 to i32
  store i32 %166, ptr %27, align 4, !tbaa !4
  %167 = load i32, ptr %15, align 4, !tbaa !4
  %168 = icmp slt i32 %167, 0
  br i1 %168, label %177, label %169

169:                                              ; preds = %140
  %170 = load i32, ptr %26, align 4, !tbaa !4
  %171 = icmp slt i32 %170, 0
  br i1 %171, label %177, label %172

172:                                              ; preds = %169
  %173 = load ptr, ptr %12, align 8, !tbaa !76
  %174 = getelementptr inbounds nuw %struct.IVIBandDesc, ptr %173, i32 0, i32 9
  %175 = load ptr, ptr %174, align 8, !tbaa !156
  %176 = icmp ne ptr %175, null
  br i1 %176, label %178, label %177

177:                                              ; preds = %172, %169, %140
  store i32 -1094995529, ptr %11, align 4
  store i32 1, ptr %28, align 4
  br label %234

178:                                              ; preds = %172
  %179 = load i32, ptr %23, align 4, !tbaa !4
  %180 = load i32, ptr %24, align 4, !tbaa !4
  %181 = sub nsw i32 %179, %180
  %182 = load i32, ptr %27, align 4, !tbaa !4
  %183 = sub nsw i32 %181, %182
  %184 = load i32, ptr %26, align 4, !tbaa !4
  %185 = icmp slt i32 %183, %184
  br i1 %185, label %186, label %187

186:                                              ; preds = %178
  store i32 -1094995529, ptr %11, align 4
  store i32 1, ptr %28, align 4
  br label %234

187:                                              ; preds = %178
  %188 = load i32, ptr %20, align 4, !tbaa !4
  %189 = icmp eq i32 %188, -1
  br i1 %189, label %190, label %208

190:                                              ; preds = %187
  %191 = load ptr, ptr %13, align 8, !tbaa !197
  %192 = load ptr, ptr %12, align 8, !tbaa !76
  %193 = getelementptr inbounds nuw %struct.IVIBandDesc, ptr %192, i32 0, i32 7
  %194 = load ptr, ptr %193, align 8, !tbaa !144
  %195 = load i32, ptr %15, align 4, !tbaa !4
  %196 = sext i32 %195 to i64
  %197 = getelementptr inbounds i16, ptr %194, i64 %196
  %198 = load ptr, ptr %12, align 8, !tbaa !76
  %199 = getelementptr inbounds nuw %struct.IVIBandDesc, ptr %198, i32 0, i32 9
  %200 = load ptr, ptr %199, align 8, !tbaa !156
  %201 = load i32, ptr %26, align 4, !tbaa !4
  %202 = sext i32 %201 to i64
  %203 = getelementptr inbounds i16, ptr %200, i64 %202
  %204 = load ptr, ptr %12, align 8, !tbaa !76
  %205 = getelementptr inbounds nuw %struct.IVIBandDesc, ptr %204, i32 0, i32 11
  %206 = load i64, ptr %205, align 8, !tbaa !84
  %207 = load i32, ptr %21, align 4, !tbaa !4
  call void %191(ptr noundef %197, ptr noundef %203, i64 noundef %206, i32 noundef %207)
  br label %233

208:                                              ; preds = %187
  %209 = load ptr, ptr %14, align 8, !tbaa !197
  %210 = load ptr, ptr %12, align 8, !tbaa !76
  %211 = getelementptr inbounds nuw %struct.IVIBandDesc, ptr %210, i32 0, i32 7
  %212 = load ptr, ptr %211, align 8, !tbaa !144
  %213 = load i32, ptr %15, align 4, !tbaa !4
  %214 = sext i32 %213 to i64
  %215 = getelementptr inbounds i16, ptr %212, i64 %214
  %216 = load ptr, ptr %12, align 8, !tbaa !76
  %217 = getelementptr inbounds nuw %struct.IVIBandDesc, ptr %216, i32 0, i32 8
  %218 = load ptr, ptr %217, align 8, !tbaa !154
  %219 = load i32, ptr %22, align 4, !tbaa !4
  %220 = sext i32 %219 to i64
  %221 = getelementptr inbounds i16, ptr %218, i64 %220
  %222 = load ptr, ptr %12, align 8, !tbaa !76
  %223 = getelementptr inbounds nuw %struct.IVIBandDesc, ptr %222, i32 0, i32 9
  %224 = load ptr, ptr %223, align 8, !tbaa !156
  %225 = load i32, ptr %26, align 4, !tbaa !4
  %226 = sext i32 %225 to i64
  %227 = getelementptr inbounds i16, ptr %224, i64 %226
  %228 = load ptr, ptr %12, align 8, !tbaa !76
  %229 = getelementptr inbounds nuw %struct.IVIBandDesc, ptr %228, i32 0, i32 11
  %230 = load i64, ptr %229, align 8, !tbaa !84
  %231 = load i32, ptr %20, align 4, !tbaa !4
  %232 = load i32, ptr %21, align 4, !tbaa !4
  call void %209(ptr noundef %215, ptr noundef %221, ptr noundef %227, i64 noundef %230, i32 noundef %231, i32 noundef %232)
  br label %233

233:                                              ; preds = %208, %190
  store i32 0, ptr %28, align 4
  br label %234

234:                                              ; preds = %233, %186, %177
  call void @llvm.lifetime.end.p0(i64 4, ptr %27) #12
  call void @llvm.lifetime.end.p0(i64 4, ptr %26) #12
  %235 = load i32, ptr %28, align 4
  switch i32 %235, label %238 [
    i32 0, label %236
  ]

236:                                              ; preds = %234
  br label %237

237:                                              ; preds = %236, %122
  store i32 0, ptr %11, align 4
  store i32 1, ptr %28, align 4
  br label %238

238:                                              ; preds = %237, %234
  call void @llvm.lifetime.end.p0(i64 4, ptr %25) #12
  call void @llvm.lifetime.end.p0(i64 4, ptr %24) #12
  call void @llvm.lifetime.end.p0(i64 4, ptr %23) #12
  call void @llvm.lifetime.end.p0(i64 4, ptr %22) #12
  %239 = load i32, ptr %11, align 4
  ret i32 %239
}