; Function Attrs: nounwind uwtable
define internal fastcc range(i32 -1094995529, 1) i32 @ivi_mc(ptr noundef readonly captures(none) %0, ptr noundef readonly captures(none) %1, ptr noundef readonly captures(none) %2, i32 noundef %3, i32 noundef range(i32 -128, 128) %4, i32 noundef range(i32 -128, 128) %5, i32 noundef range(i32 -128, 128) %6, i32 noundef range(i32 -128, 128) %7, i32 noundef %8, i32 noundef range(i32 -1, 4) %9) unnamed_addr #2 {
  %11 = sext i32 %3 to i64
  %12 = getelementptr inbounds nuw i8, ptr %0, i64 96
  %13 = load i64, ptr %12, align 8, !tbaa !69
  %14 = trunc i64 %13 to i32
  %15 = mul i32 %5, %14
  %16 = add i32 %4, %3
  %17 = add i32 %16, %15
  %18 = getelementptr inbounds nuw i8, ptr %0, i64 16
  %19 = load i32, ptr %18, align 8, !tbaa !70
  %20 = mul i32 %19, %14
  %21 = getelementptr inbounds nuw i8, ptr %0, i64 112
  %22 = load i32, ptr %21, align 8, !tbaa !154
  %23 = add nsw i32 %22, -1
  %24 = mul i32 %23, %14
  %25 = add i32 %24, %22
  %26 = icmp sgt i32 %8, 1
  %27 = and i32 %8, 1
  %28 = select i1 %26, i32 %14, i32 0
  %.not = icmp eq i32 %8, -1
  br i1 %.not, label %43, label %29

29:                                               ; preds = %10
  %30 = icmp sgt i32 %3, -1
  %31 = icmp sgt i32 %17, -1
  %or.cond = select i1 %30, i1 %31, i1 false
  br i1 %or.cond, label %32, label %35

32:                                               ; preds = %29
  %33 = getelementptr inbounds nuw i8, ptr %0, i64 48
  %34 = load ptr, ptr %33, align 8, !tbaa !125
  %.not75 = icmp eq ptr %34, null
  br i1 %.not75, label %35, label %36

35:                                               ; preds = %32, %29
  tail call void (ptr, i32, ptr, ...) @av_log(ptr noundef null, i32 noundef 0, ptr noundef nonnull @.str.2, ptr noundef nonnull @.str.28, ptr noundef nonnull @.str.4, i32 noundef 92) #10
  tail call void @abort() #12
  unreachable

36:                                               ; preds = %32
  %37 = sub nsw i32 %20, %25
  %.not76 = icmp slt i32 %37, %3
  br i1 %.not76, label %38, label %39

38:                                               ; preds = %36
  tail call void (ptr, i32, ptr, ...) @av_log(ptr noundef null, i32 noundef 0, ptr noundef nonnull @.str.2, ptr noundef nonnull @.str.29, ptr noundef nonnull @.str.4, i32 noundef 93) #10
  tail call void @abort() #12
  unreachable

39:                                               ; preds = %36
  %40 = add i32 %28, %27
  %41 = sub i32 %37, %40
  %.not77 = icmp slt i32 %41, %17
  br i1 %.not77, label %42, label %43

42:                                               ; preds = %39
  tail call void (ptr, i32, ptr, ...) @av_log(ptr noundef null, i32 noundef 0, ptr noundef nonnull @.str.2, ptr noundef nonnull @.str.30, ptr noundef nonnull @.str.4, i32 noundef 94) #10
  tail call void @abort() #12
  unreachable

43:                                               ; preds = %39, %10
  %44 = icmp eq i32 %9, -1
  br i1 %44, label %45, label %53

45:                                               ; preds = %43
  %46 = getelementptr inbounds nuw i8, ptr %0, i64 40
  %47 = load ptr, ptr %46, align 8, !tbaa !123
  %48 = getelementptr inbounds i16, ptr %47, i64 %11
  %49 = getelementptr inbounds nuw i8, ptr %0, i64 48
  %50 = load ptr, ptr %49, align 8, !tbaa !125
  %51 = sext i32 %17 to i64
  %52 = getelementptr inbounds i16, ptr %50, i64 %51
  tail call void %1(ptr noundef %48, ptr noundef %52, i64 noundef %13, i32 noundef %8) #10, !callees !189
  br label %.critedge

53:                                               ; preds = %43
  %54 = mul i32 %7, %14
  %55 = add i32 %6, %3
  %56 = add i32 %55, %54
  %57 = icmp samesign ugt i32 %9, 1
  %58 = and i32 %9, 1
  %59 = select i1 %57, i32 %14, i32 0
  %60 = icmp slt i32 %3, 0
  %61 = icmp slt i32 %56, 0
  %or.cond3 = select i1 %60, i1 true, i1 %61
  br i1 %or.cond3, label %.critedge, label %62

62:                                               ; preds = %53
  %63 = getelementptr inbounds nuw i8, ptr %0, i64 56
  %64 = load ptr, ptr %63, align 8, !tbaa !127
  %.not78 = icmp eq ptr %64, null
  br i1 %.not78, label %.critedge, label %65

65:                                               ; preds = %62
  %66 = add i32 %59, %58
  %67 = add i32 %66, %25
  %68 = sub i32 %20, %67
  %69 = icmp slt i32 %68, %56
  br i1 %69, label %.critedge, label %70

70:                                               ; preds = %65
  %71 = getelementptr inbounds nuw i8, ptr %0, i64 40
  %72 = load ptr, ptr %71, align 8, !tbaa !123
  %73 = getelementptr inbounds nuw i16, ptr %72, i64 %11
  br i1 %.not, label %74, label %77

74:                                               ; preds = %70
  %75 = zext nneg i32 %56 to i64
  %76 = getelementptr inbounds nuw i16, ptr %64, i64 %75
  tail call void %1(ptr noundef %73, ptr noundef nonnull %76, i64 noundef %13, i32 noundef %9) #10, !callees !189
  br label %.critedge

77:                                               ; preds = %70
  %78 = getelementptr inbounds nuw i8, ptr %0, i64 48
  %79 = load ptr, ptr %78, align 8, !tbaa !125
  %80 = sext i32 %17 to i64
  %81 = getelementptr inbounds i16, ptr %79, i64 %80
  %82 = zext nneg i32 %56 to i64
  %83 = getelementptr inbounds nuw i16, ptr %64, i64 %82
  tail call void %2(ptr noundef %73, ptr noundef %81, ptr noundef nonnull %83, i64 noundef %13, i32 noundef %8, i32 noundef %9) #10, !callees !190
  br label %.critedge

.critedge:                                        ; preds = %62, %53, %65, %45, %74, %77
  %.1 = phi i32 [ 0, %77 ], [ 0, %74 ], [ 0, %45 ], [ -1094995529, %65 ], [ -1094995529, %53 ], [ -1094995529, %62 ]
  ret i32 %.1
}